target datalayout = "e-m:e-p270:32:32-p271:32:32-p272:64:64-i64:64-i128:128-f80:128-n8:16:32:64-S128"
target triple = "x86_64-pc-linux-gnu"

%struct.UTrie2 = type { ptr, ptr, ptr, i32, i32, i16, i16, i32, i32, i32, i32, ptr, i32, i8, i8, i16, ptr }

@.str.11 = private unnamed_addr constant [34 x i8] c"    %s,\0A    %s+%ld,\0A    nullptr,\0A\00", align 1
@.str.12 = private unnamed_addr constant [30 x i8] c"    %s,\0A    nullptr,\0A    %s,\0A\00", align 1
@.str.13 = private unnamed_addr constant [126 x i8] c"    %ld,\0A    %ld,\0A    0x%hx,\0A    0x%hx,\0A    0x%lx,\0A    0x%lx,\0A    0x%lx,\0A    0x%lx,\0A    nullptr, 0, false, false, 0, nullptr\0A\00", align 1

; Function Attrs: mustprogress uwtable
define void @usrc_writeUTrie2Struct(ptr noundef %0, ptr noundef %1, ptr noundef %2, ptr noundef %3, ptr noundef %4, ptr noundef %5) #1 {
  %7 = alloca ptr, align 8
  %8 = alloca ptr, align 8
  %9 = alloca ptr, align 8
  %10 = alloca ptr, align 8
  %11 = alloca ptr, align 8
  %12 = alloca ptr, align 8
  store ptr %0, ptr %7, align 8, !tbaa !25
  store ptr %1, ptr %8, align 8, !tbaa !17
  store ptr %2, ptr %9, align 8, !tbaa !38
  store ptr %3, ptr %10, align 8, !tbaa !17
  store ptr %4, ptr %11, align 8, !tbaa !17
  store ptr %5, ptr %12, align 8, !tbaa !17
  %13 = load ptr, ptr %8, align 8, !tbaa !17
  %14 = icmp ne ptr %13, null
  br i1 %14, label %15, label %19

15:                                               ; preds = %6
  %16 = load ptr, ptr %8, align 8, !tbaa !17
  %17 = load ptr, ptr %7, align 8, !tbaa !25
  %18 = call i32 @fputs(ptr noundef %16, ptr noundef %17)
  br label %19

19:                                               ; preds = %15, %6
  %20 = load ptr, ptr %9, align 8, !tbaa !38
  %21 = getelementptr inbounds nuw %struct.UTrie2, ptr %20, i32 0, i32 2
  %22 = load ptr, ptr %21, align 8, !tbaa !40
  %23 = icmp eq ptr %22, null
  br i1 %23, label %24, label %33

24:                                               ; preds = %19
  %25 = load ptr, ptr %7, align 8, !tbaa !25
  %26 = load ptr, ptr %10, align 8, !tbaa !17
  %27 = load ptr, ptr %10, align 8, !tbaa !17
  %28 = load ptr, ptr %9, align 8, !tbaa !38
  %29 = getelementptr inbounds nuw %struct.UTrie2, ptr %28, i32 0, i32 3
  %30 = load i32, ptr %29, align 8, !tbaa !44
  %31 = sext i32 %30 to i64
  %32 = call i32 (ptr, ptr, ...) @fprintf(ptr noundef %25, ptr noundef @.str.11, ptr noundef %26, ptr noundef %27, i64 noundef %31) #16
  br label %38

33:                                               ; preds = %19
  %34 = load ptr, ptr %7, align 8, !tbaa !25
  %35 = load ptr, ptr %10, align 8, !tbaa !17
  %36 = load ptr, ptr %11, align 8, !tbaa !17
  %37 = call i32 (ptr, ptr, ...) @fprintf(ptr noundef %34, ptr noundef @.str.12, ptr noundef %35, ptr noundef %36) #16
  br label %38

38:                                               ; preds = %33, %24
  %39 = load ptr, ptr %7, align 8, !tbaa !25
  %40 = load ptr, ptr %9, align 8, !tbaa !38
  %41 = getelementptr inbounds nuw %struct.UTrie2, ptr %40, i32 0, i32 3
  %42 = load i32, ptr %41, align 8, !tbaa !44
  %43 = sext i32 %42 to i64
  %44 = load ptr, ptr %9, align 8, !tbaa !38
  %45 = getelementptr inbounds nuw %struct.UTrie2, ptr %44, i32 0, i32 4
  %46 = load i32, ptr %45, align 4, !tbaa !45
  %47 = sext i32 %46 to i64
  %48 = load ptr, ptr %9, align 8, !tbaa !38
  %49 = getelementptr inbounds nuw %struct.UTrie2, ptr %48, i32 0, i32 5
  %50 = load i16, ptr %49, align 8, !tbaa !46
  %51 = sext i16 %50 to i32
  %52 = load ptr, ptr %9, align 8, !tbaa !38
  %53 = getelementptr inbounds nuw %struct.UTrie2, ptr %52, i32 0, i32 6
  %54 = load i16, ptr %53, align 2, !tbaa !47
  %55 = sext i16 %54 to i32
  %56 = load ptr, ptr %9, align 8, !tbaa !38
  %57 = getelementptr inbounds nuw %struct.UTrie2, ptr %56, i32 0, i32 7
  %58 = load i32, ptr %57, align 4, !tbaa !48
  %59 = zext i32 %58 to i64
  %60 = load ptr, ptr %9, align 8, !tbaa !38
  %61 = getelementptr inbounds nuw %struct.UTrie2, ptr %60, i32 0, i32 8
  %62 = load i32, ptr %61, align 8, !tbaa !49
  %63 = zext i32 %62 to i64
  %64 = load ptr, ptr %9, align 8, !tbaa !38
  %65 = getelementptr inbounds nuw %struct.UTrie2, ptr %64, i32 0, i32 9
  %66 = load i32, ptr %65, align 4, !tbaa !50
  %67 = sext i32 %66 to i64
  %68 = load ptr, ptr %9, align 8, !tbaa !38
  %69 = getelementptr inbounds nuw %struct.UTrie2, ptr %68, i32 0, i32 10
  %70 = load i32, ptr %69, align 8, !tbaa !51
  %71 = sext i32 %70 to i64
  %72 = call i32 (ptr, ptr, ...) @fprintf(ptr noundef %39, ptr noundef @.str.13, i64 noundef %43, i64 noundef %47, i32 noundef %51, i32 noundef %55, i64 noundef %59, i64 noundef %63, i64 noundef %67, i64 noundef %71) #16
  %73 = load ptr, ptr %12, align 8, !tbaa !17
  %74 = icmp ne ptr %73, null
  br i1 %74, label %75, label %79

75:                                               ; preds = %38
  %76 = load ptr, ptr %12, align 8, !tbaa !17
  %77 = load ptr, ptr %7, align 8, !tbaa !25
  %78 = call i32 @fputs(ptr noundef %76, ptr noundef %77)
  br label %79

79:                                               ; preds = %75, %38
  ret void
}