; Function Attrs: mustprogress nofree nounwind uwtable
define void @usrc_writeUTrie2Struct(ptr noundef captures(none) %0, ptr noundef readonly %1, ptr noundef readonly captures(none) %2, ptr noundef %3, ptr noundef %4, ptr noundef readonly %5) local_unnamed_addr #13 {
  %.not = icmp eq ptr %1, null
  br i1 %.not, label %9, label %7

7:                                                ; preds = %6
  %8 = tail call i32 @fputs(ptr noundef nonnull %1, ptr noundef %0)
  br label %9

9:                                                ; preds = %7, %6
  %10 = getelementptr inbounds nuw i8, ptr %2, i64 16
  %11 = load ptr, ptr %10, align 8, !tbaa !24
  %12 = icmp eq ptr %11, null
  br i1 %12, label %13, label %18

13:                                               ; preds = %9
  %14 = getelementptr inbounds nuw i8, ptr %2, i64 24
  %15 = load i32, ptr %14, align 8, !tbaa !30
  %16 = sext i32 %15 to i64
  %17 = tail call i32 (ptr, ptr, ...) @fprintf(ptr noundef %0, ptr noundef nonnull @.str.11, ptr noundef %3, ptr noundef %3, i64 noundef %16) #24
  br label %20

18:                                               ; preds = %9
  %19 = tail call i32 (ptr, ptr, ...) @fprintf(ptr noundef %0, ptr noundef nonnull @.str.12, ptr noundef %3, ptr noundef %4) #24
  br label %20

20:                                               ; preds = %18, %13
  %21 = getelementptr inbounds nuw i8, ptr %2, i64 24
  %22 = load i32, ptr %21, align 8, !tbaa !30
  %23 = sext i32 %22 to i64
  %24 = getelementptr inbounds nuw i8, ptr %2, i64 28
  %25 = load i32, ptr %24, align 4, !tbaa !31
  %26 = sext i32 %25 to i64
  %27 = getelementptr inbounds nuw i8, ptr %2, i64 32
  %28 = load i16, ptr %27, align 8, !tbaa !32
  %29 = sext i16 %28 to i32
  %30 = getelementptr inbounds nuw i8, ptr %2, i64 34
  %31 = load i16, ptr %30, align 2, !tbaa !33
  %32 = sext i16 %31 to i32
  %33 = getelementptr inbounds nuw i8, ptr %2, i64 36
  %34 = load i32, ptr %33, align 4, !tbaa !34
  %35 = zext i32 %34 to i64
  %36 = getelementptr inbounds nuw i8, ptr %2, i64 40
  %37 = load i32, ptr %36, align 8, !tbaa !35
  %38 = zext i32 %37 to i64
  %39 = getelementptr inbounds nuw i8, ptr %2, i64 44
  %40 = load i32, ptr %39, align 4, !tbaa !36
  %41 = sext i32 %40 to i64
  %42 = getelementptr inbounds nuw i8, ptr %2, i64 48
  %43 = load i32, ptr %42, align 8, !tbaa !37
  %44 = sext i32 %43 to i64
  %45 = tail call i32 (ptr, ptr, ...) @fprintf(ptr noundef %0, ptr noundef nonnull @.str.13, i64 noundef %23, i64 noundef %26, i32 noundef %29, i32 noundef %32, i64 noundef %35, i64 noundef %38, i64 noundef %41, i64 noundef %44) #24
  %.not24 = icmp eq ptr %5, null
  br i1 %.not24, label %48, label %46

46:                                               ; preds = %20
  %47 = tail call i32 @fputs(ptr noundef nonnull %5, ptr noundef %0)
  br label %48

48:                                               ; preds = %46, %20
  ret void
}